target datalayout = "e-m:e-p270:32:32-p271:32:32-p272:64:64-i64:64-i128:128-f80:128-n8:16:32:64-S128"
target triple = "x86_64-pc-linux-gnu"

%struct.MXFMetadataSet = type { [16 x i8], i64 }
%struct.MXFMCASubDescriptor = type { %struct.MXFMetadataSet, [16 x i8], [16 x i8], [16 x i8], ptr, i32, [16 x i8], i32, ptr }

@mxf_mca_label_dictionary_id = internal constant [16 x i8] c"\06\0E+4\01\01\01\0E\01\03\07\01\01\00\00\00", align 16
@mxf_mca_link_id = internal constant [16 x i8] c"\06\0E+4\01\01\01\0E\01\03\07\01\05\00\00\00", align 16
@mxf_soundfield_group_link_id = internal constant [16 x i8] c"\06\0E+4\01\01\01\0E\01\03\07\01\06\00\00\00", align 16
@mxf_group_of_soundfield_groups_link_id = internal constant [16 x i8] c"\06\0E+4\01\01\01\0E\01\03\07\01\04\00\00\00", align 16
@mxf_mca_channel_id = internal constant [16 x i8] c"\06\0E+4\01\01\01\0E\01\03\04\0A\00\00\00\00", align 16
@mxf_mca_rfc5646_spoken_language = internal constant [16 x i8] c"\06\0E+4\01\01\01\0D\03\01\01\02\03\15\00\00", align 16

; Function Attrs: inlinehint nounwind uwtable
define internal i32 @mxf_read_us_ascii_string(ptr noundef %0, i32 noundef %1, ptr noundef %2) #10 {
  %4 = alloca i32, align 4
  %5 = alloca ptr, align 8
  %6 = alloca i32, align 4
  %7 = alloca ptr, align 8
  %8 = alloca i32, align 4
  %9 = alloca i64, align 8
  %10 = alloca i32, align 4
  store ptr %0, ptr %5, align 8, !tbaa !138
  store i32 %1, ptr %6, align 4, !tbaa !47
  store ptr %2, ptr %7, align 8, !tbaa !327
  call void @llvm.lifetime.start.p0(i64 4, ptr %8) #13
  call void @llvm.lifetime.start.p0(i64 8, ptr %9) #13
  %11 = load i32, ptr %6, align 4, !tbaa !47
  %12 = icmp slt i32 %11, 0
  br i1 %12, label %16, label %13

13:                                               ; preds = %3
  %14 = load i32, ptr %6, align 4, !tbaa !47
  %15 = icmp sgt i32 %14, 2147483646
  br i1 %15, label %16, label %17

16:                                               ; preds = %13, %3
  store i32 -22, ptr %4, align 4
  store i32 1, ptr %10, align 4
  br label %45

17:                                               ; preds = %13
  %18 = load i32, ptr %6, align 4, !tbaa !47
  %19 = add nsw i32 %18, 1
  %20 = sext i32 %19 to i64
  store i64 %20, ptr %9, align 8, !tbaa !37
  %21 = load ptr, ptr %7, align 8, !tbaa !327
  %22 = load ptr, ptr %21, align 8, !tbaa !13
  call void @av_free(ptr noundef %22)
  %23 = load i64, ptr %9, align 8, !tbaa !37
  %24 = call noalias ptr @av_malloc(i64 noundef %23)
  %25 = load ptr, ptr %7, align 8, !tbaa !327
  store ptr %24, ptr %25, align 8, !tbaa !13
  %26 = load ptr, ptr %7, align 8, !tbaa !327
  %27 = load ptr, ptr %26, align 8, !tbaa !13
  %28 = icmp ne ptr %27, null
  br i1 %28, label %30, label %29

29:                                               ; preds = %17
  store i32 -12, ptr %4, align 4
  store i32 1, ptr %10, align 4
  br label %45

30:                                               ; preds = %17
  %31 = load ptr, ptr %5, align 8, !tbaa !138
  %32 = load i32, ptr %6, align 4, !tbaa !47
  %33 = load ptr, ptr %7, align 8, !tbaa !327
  %34 = load ptr, ptr %33, align 8, !tbaa !13
  %35 = load i64, ptr %9, align 8, !tbaa !37
  %36 = trunc i64 %35 to i32
  %37 = call i32 @avio_get_str(ptr noundef %31, i32 noundef %32, ptr noundef %34, i32 noundef %36)
  store i32 %37, ptr %8, align 4, !tbaa !47
  %38 = load i32, ptr %8, align 4, !tbaa !47
  %39 = icmp slt i32 %38, 0
  br i1 %39, label %40, label %43

40:                                               ; preds = %30
  %41 = load ptr, ptr %7, align 8, !tbaa !327
  call void @av_freep(ptr noundef %41)
  %42 = load i32, ptr %8, align 4, !tbaa !47
  store i32 %42, ptr %4, align 4
  store i32 1, ptr %10, align 4
  br label %45

43:                                               ; preds = %30
  %44 = load i32, ptr %8, align 4, !tbaa !47
  store i32 %44, ptr %4, align 4
  store i32 1, ptr %10, align 4
  br label %45

45:                                               ; preds = %43, %40, %29, %16
  call void @llvm.lifetime.end.p0(i64 8, ptr %9) #13
  call void @llvm.lifetime.end.p0(i64 4, ptr %8) #13
  %46 = load i32, ptr %4, align 4
  ret i32 %46
}

; Function Attrs: nounwind uwtable
define internal i32 @mxf_read_mca_sub_descriptor(ptr noundef %0, ptr noundef %1, i32 noundef %2, i32 noundef %3, ptr noundef %4, i64 noundef %5) #0 {
  %7 = alloca i32, align 4
  %8 = alloca ptr, align 8
  %9 = alloca ptr, align 8
  %10 = alloca i32, align 4
  %11 = alloca i32, align 4
  %12 = alloca ptr, align 8
  %13 = alloca i64, align 8
  %14 = alloca ptr, align 8
  %15 = alloca i32, align 4
  store ptr %0, ptr %8, align 8, !tbaa !90
  store ptr %1, ptr %9, align 8, !tbaa !138
  store i32 %2, ptr %10, align 4, !tbaa !47
  store i32 %3, ptr %11, align 4, !tbaa !47
  store ptr %4, ptr %12, align 8, !tbaa !13
  store i64 %5, ptr %13, align 8, !tbaa !37
  call void @llvm.lifetime.start.p0(i64 8, ptr %14) #13
  %16 = load ptr, ptr %8, align 8, !tbaa !90
  store ptr %16, ptr %14, align 8, !tbaa !316
  %17 = load ptr, ptr %12, align 8, !tbaa !13
  %18 = call i32 @memcmp(ptr noundef %17, ptr noundef @mxf_mca_label_dictionary_id, i64 noundef 16) #14
  %19 = icmp ne i32 %18, 0
  br i1 %19, label %26, label %20

20:                                               ; preds = %6
  %21 = load ptr, ptr %9, align 8, !tbaa !138
  %22 = load ptr, ptr %14, align 8, !tbaa !316
  %23 = getelementptr inbounds nuw %struct.MXFMCASubDescriptor, ptr %22, i32 0, i32 6
  %24 = getelementptr inbounds [16 x i8], ptr %23, i64 0, i64 0
  %25 = call i32 @avio_read(ptr noundef %21, ptr noundef %24, i32 noundef 16)
  br label %26

26:                                               ; preds = %20, %6
  %27 = load ptr, ptr %12, align 8, !tbaa !13
  %28 = call i32 @memcmp(ptr noundef %27, ptr noundef @mxf_mca_link_id, i64 noundef 16) #14
  %29 = icmp ne i32 %28, 0
  br i1 %29, label %36, label %30

30:                                               ; preds = %26
  %31 = load ptr, ptr %9, align 8, !tbaa !138
  %32 = load ptr, ptr %14, align 8, !tbaa !316
  %33 = getelementptr inbounds nuw %struct.MXFMCASubDescriptor, ptr %32, i32 0, i32 2
  %34 = getelementptr inbounds [16 x i8], ptr %33, i64 0, i64 0
  %35 = call i32 @avio_read(ptr noundef %31, ptr noundef %34, i32 noundef 16)
  br label %36

36:                                               ; preds = %30, %26
  %37 = load ptr, ptr %12, align 8, !tbaa !13
  %38 = call i32 @memcmp(ptr noundef %37, ptr noundef @mxf_soundfield_group_link_id, i64 noundef 16) #14
  %39 = icmp ne i32 %38, 0
  br i1 %39, label %46, label %40

40:                                               ; preds = %36
  %41 = load ptr, ptr %9, align 8, !tbaa !138
  %42 = load ptr, ptr %14, align 8, !tbaa !316
  %43 = getelementptr inbounds nuw %struct.MXFMCASubDescriptor, ptr %42, i32 0, i32 3
  %44 = getelementptr inbounds [16 x i8], ptr %43, i64 0, i64 0
  %45 = call i32 @avio_read(ptr noundef %41, ptr noundef %44, i32 noundef 16)
  br label %46

46:                                               ; preds = %40, %36
  %47 = load ptr, ptr %12, align 8, !tbaa !13
  %48 = call i32 @memcmp(ptr noundef %47, ptr noundef @mxf_group_of_soundfield_groups_link_id, i64 noundef 16) #14
  %49 = icmp ne i32 %48, 0
  br i1 %49, label %57, label %50

50:                                               ; preds = %46
  %51 = load ptr, ptr %9, align 8, !tbaa !138
  %52 = load ptr, ptr %14, align 8, !tbaa !316
  %53 = getelementptr inbounds nuw %struct.MXFMCASubDescriptor, ptr %52, i32 0, i32 4
  %54 = load ptr, ptr %14, align 8, !tbaa !316
  %55 = getelementptr inbounds nuw %struct.MXFMCASubDescriptor, ptr %54, i32 0, i32 5
  %56 = call i32 @mxf_read_strong_ref_array(ptr noundef %51, ptr noundef %53, ptr noundef %55)
  store i32 %56, ptr %7, align 4
  store i32 1, ptr %15, align 4
  br label %77

57:                                               ; preds = %46
  %58 = load ptr, ptr %12, align 8, !tbaa !13
  %59 = call i32 @memcmp(ptr noundef %58, ptr noundef @mxf_mca_channel_id, i64 noundef 16) #14
  %60 = icmp ne i32 %59, 0
  br i1 %60, label %66, label %61

61:                                               ; preds = %57
  %62 = load ptr, ptr %9, align 8, !tbaa !138
  %63 = call i32 @avio_rb32(ptr noundef %62)
  %64 = load ptr, ptr %14, align 8, !tbaa !316
  %65 = getelementptr inbounds nuw %struct.MXFMCASubDescriptor, ptr %64, i32 0, i32 7
  store i32 %63, ptr %65, align 4, !tbaa !318
  br label %66

66:                                               ; preds = %61, %57
  %67 = load ptr, ptr %12, align 8, !tbaa !13
  %68 = call i32 @memcmp(ptr noundef %67, ptr noundef @mxf_mca_rfc5646_spoken_language, i64 noundef 16) #14
  %69 = icmp ne i32 %68, 0
  br i1 %69, label %76, label %70

70:                                               ; preds = %66
  %71 = load ptr, ptr %9, align 8, !tbaa !138
  %72 = load i32, ptr %11, align 4, !tbaa !47
  %73 = load ptr, ptr %14, align 8, !tbaa !316
  %74 = getelementptr inbounds nuw %struct.MXFMCASubDescriptor, ptr %73, i32 0, i32 8
  %75 = call i32 @mxf_read_us_ascii_string(ptr noundef %71, i32 noundef %72, ptr noundef %74)
  store i32 %75, ptr %7, align 4
  store i32 1, ptr %15, align 4
  br label %77

76:                                               ; preds = %66
  store i32 0, ptr %7, align 4
  store i32 1, ptr %15, align 4
  br label %77

77:                                               ; preds = %76, %70, %50
  call void @llvm.lifetime.end.p0(i64 8, ptr %14) #13
  %78 = load i32, ptr %7, align 4
  ret i32 %78
}