; Function Attrs: nounwind uwtable
define internal i32 @mxf_read_mca_sub_descriptor(ptr noundef %0, ptr noundef %1, i32 %2, i32 noundef %3, ptr noundef readonly captures(none) %4, i64 %5) #1 {
  %bcmp = tail call i32 @bcmp(ptr noundef nonnull dereferenceable(16) %4, ptr noundef nonnull dereferenceable(16) @mxf_mca_label_dictionary_id, i64 16)
  %.not = icmp eq i32 %bcmp, 0
  br i1 %.not, label %7, label %10

7:                                                ; preds = %6
  %8 = getelementptr inbounds nuw i8, ptr %0, i64 84
  %9 = tail call i32 @avio_read(ptr noundef %1, ptr noundef nonnull %8, i32 noundef 16) #15
  br label %10

10:                                               ; preds = %7, %6
  %bcmp21 = tail call i32 @bcmp(ptr noundef nonnull dereferenceable(16) %4, ptr noundef nonnull dereferenceable(16) @mxf_mca_link_id, i64 16)
  %.not22 = icmp eq i32 %bcmp21, 0
  br i1 %.not22, label %11, label %14

11:                                               ; preds = %10
  %12 = getelementptr inbounds nuw i8, ptr %0, i64 40
  %13 = tail call i32 @avio_read(ptr noundef %1, ptr noundef nonnull %12, i32 noundef 16) #15
  br label %14

14:                                               ; preds = %11, %10
  %bcmp23 = tail call i32 @bcmp(ptr noundef nonnull dereferenceable(16) %4, ptr noundef nonnull dereferenceable(16) @mxf_soundfield_group_link_id, i64 16)
  %.not24 = icmp eq i32 %bcmp23, 0
  br i1 %.not24, label %15, label %18

15:                                               ; preds = %14
  %16 = getelementptr inbounds nuw i8, ptr %0, i64 56
  %17 = tail call i32 @avio_read(ptr noundef %1, ptr noundef nonnull %16, i32 noundef 16) #15
  br label %18

18:                                               ; preds = %15, %14
  %bcmp25 = tail call i32 @bcmp(ptr noundef nonnull dereferenceable(16) %4, ptr noundef nonnull dereferenceable(16) @mxf_group_of_soundfield_groups_link_id, i64 16)
  %.not26 = icmp eq i32 %bcmp25, 0
  br i1 %.not26, label %19, label %23

19:                                               ; preds = %18
  %20 = getelementptr inbounds nuw i8, ptr %0, i64 72
  %21 = getelementptr inbounds nuw i8, ptr %0, i64 80
  %22 = tail call fastcc i32 @mxf_read_strong_ref_array(ptr noundef %1, ptr noundef nonnull %20, ptr noundef nonnull %21)
  br label %mxf_read_us_ascii_string.exit

23:                                               ; preds = %18
  %bcmp27 = tail call i32 @bcmp(ptr noundef nonnull dereferenceable(16) %4, ptr noundef nonnull dereferenceable(16) @mxf_mca_channel_id, i64 16)
  %.not28 = icmp eq i32 %bcmp27, 0
  br i1 %.not28, label %24, label %27

24:                                               ; preds = %23
  %25 = tail call i32 @avio_rb32(ptr noundef %1) #15
  %26 = getelementptr inbounds nuw i8, ptr %0, i64 100
  store i32 %25, ptr %26, align 4, !tbaa !348
  br label %27

27:                                               ; preds = %24, %23
  %bcmp29 = tail call i32 @bcmp(ptr noundef nonnull dereferenceable(16) %4, ptr noundef nonnull dereferenceable(16) @mxf_mca_rfc5646_spoken_language, i64 16)
  %.not30 = icmp eq i32 %bcmp29, 0
  br i1 %.not30, label %28, label %mxf_read_us_ascii_string.exit

28:                                               ; preds = %27
  %29 = getelementptr inbounds nuw i8, ptr %0, i64 104
  %or.cond.i = icmp ugt i32 %3, 2147483646
  br i1 %or.cond.i, label %mxf_read_us_ascii_string.exit, label %30

30:                                               ; preds = %28
  %31 = add nuw nsw i32 %3, 1
  %32 = zext nneg i32 %31 to i64
  %33 = load ptr, ptr %29, align 8, !tbaa !245
  tail call void @av_free(ptr noundef %33) #15
  %34 = tail call noalias ptr @av_malloc(i64 noundef %32) #15
  store ptr %34, ptr %29, align 8, !tbaa !245
  %.not.i = icmp eq ptr %34, null
  br i1 %.not.i, label %mxf_read_us_ascii_string.exit, label %35

35:                                               ; preds = %30
  %36 = tail call i32 @avio_get_str(ptr noundef %1, i32 noundef %3, ptr noundef nonnull %34, i32 noundef %31) #15
  %37 = icmp slt i32 %36, 0
  br i1 %37, label %38, label %mxf_read_us_ascii_string.exit

38:                                               ; preds = %35
  tail call void @av_freep(ptr noundef nonnull %29) #15
  br label %mxf_read_us_ascii_string.exit

mxf_read_us_ascii_string.exit:                    ; preds = %38, %35, %30, %28, %27, %19
  %.0 = phi i32 [ %22, %19 ], [ 0, %27 ], [ %36, %38 ], [ -22, %28 ], [ -12, %30 ], [ %36, %35 ]
  ret i32 %.0
}